target datalayout = "e-m:e-p270:32:32-p271:32:32-p272:64:64-i64:64-i128:128-f80:128-n8:16:32:64-S128"
target triple = "x86_64-pc-linux-gnu"

%struct.gmx_ana_index_t = type { i32, ptr, i32 }
%struct.t_blocka = type { i32, ptr, i32, ptr, i32, i32 }

; Function Attrs: mustprogress nounwind uwtable
define noundef zeroext i1 @_Z30gmx_ana_index_has_full_ablocksP15gmx_ana_index_tP8t_blocka(ptr noundef %0, ptr noundef %1) #1 {
  %3 = alloca i1, align 1
  %4 = alloca ptr, align 8
  %5 = alloca ptr, align 8
  %6 = alloca i32, align 4
  %7 = alloca i32, align 4
  %8 = alloca i32, align 4
  %9 = alloca i32, align 4
  store ptr %0, ptr %4, align 8, !tbaa !232
  store ptr %1, ptr %5, align 8, !tbaa !345
  call void @llvm.lifetime.start.p0(i64 4, ptr %6) #19
  call void @llvm.lifetime.start.p0(i64 4, ptr %7) #19
  call void @llvm.lifetime.start.p0(i64 4, ptr %8) #19
  store i32 0, ptr %8, align 4, !tbaa !114
  store i32 0, ptr %6, align 4, !tbaa !114
  br label %10

10:                                               ; preds = %122, %2
  %11 = load i32, ptr %6, align 4, !tbaa !114
  %12 = load ptr, ptr %4, align 8, !tbaa !232
  %13 = getelementptr inbounds nuw %struct.gmx_ana_index_t, ptr %12, i32 0, i32 0
  %14 = load i32, ptr %13, align 8, !tbaa !234
  %15 = icmp slt i32 %11, %14
  br i1 %15, label %16, label %125

16:                                               ; preds = %10
  br label %17

17:                                               ; preds = %47, %16
  %18 = load i32, ptr %8, align 4, !tbaa !114
  %19 = load ptr, ptr %5, align 8, !tbaa !345
  %20 = getelementptr inbounds nuw %struct.t_blocka, ptr %19, i32 0, i32 0
  %21 = load i32, ptr %20, align 8, !tbaa !351
  %22 = icmp slt i32 %18, %21
  br i1 %22, label %23, label %45

23:                                               ; preds = %17
  %24 = load ptr, ptr %5, align 8, !tbaa !345
  %25 = getelementptr inbounds nuw %struct.t_blocka, ptr %24, i32 0, i32 3
  %26 = load ptr, ptr %25, align 8, !tbaa !349
  %27 = load ptr, ptr %5, align 8, !tbaa !345
  %28 = getelementptr inbounds nuw %struct.t_blocka, ptr %27, i32 0, i32 1
  %29 = load ptr, ptr %28, align 8, !tbaa !353
  %30 = load i32, ptr %8, align 4, !tbaa !114
  %31 = sext i32 %30 to i64
  %32 = getelementptr inbounds i32, ptr %29, i64 %31
  %33 = load i32, ptr %32, align 4, !tbaa !114
  %34 = sext i32 %33 to i64
  %35 = getelementptr inbounds i32, ptr %26, i64 %34
  %36 = load i32, ptr %35, align 4, !tbaa !114
  %37 = load ptr, ptr %4, align 8, !tbaa !232
  %38 = getelementptr inbounds nuw %struct.gmx_ana_index_t, ptr %37, i32 0, i32 1
  %39 = load ptr, ptr %38, align 8, !tbaa !236
  %40 = load i32, ptr %6, align 4, !tbaa !114
  %41 = sext i32 %40 to i64
  %42 = getelementptr inbounds i32, ptr %39, i64 %41
  %43 = load i32, ptr %42, align 4, !tbaa !114
  %44 = icmp ne i32 %36, %43
  br label %45

45:                                               ; preds = %23, %17
  %46 = phi i1 [ false, %17 ], [ %44, %23 ]
  br i1 %46, label %47, label %50

47:                                               ; preds = %45
  %48 = load i32, ptr %8, align 4, !tbaa !114
  %49 = add nsw i32 %48, 1
  store i32 %49, ptr %8, align 4, !tbaa !114
  br label %17, !llvm.loop !472

50:                                               ; preds = %45
  %51 = load i32, ptr %8, align 4, !tbaa !114
  %52 = load ptr, ptr %5, align 8, !tbaa !345
  %53 = getelementptr inbounds nuw %struct.t_blocka, ptr %52, i32 0, i32 0
  %54 = load i32, ptr %53, align 8, !tbaa !351
  %55 = icmp eq i32 %51, %54
  br i1 %55, label %79, label %56

56:                                               ; preds = %50
  %57 = load i32, ptr %6, align 4, !tbaa !114
  %58 = load ptr, ptr %5, align 8, !tbaa !345
  %59 = getelementptr inbounds nuw %struct.t_blocka, ptr %58, i32 0, i32 1
  %60 = load ptr, ptr %59, align 8, !tbaa !353
  %61 = load i32, ptr %8, align 4, !tbaa !114
  %62 = add nsw i32 %61, 1
  %63 = sext i32 %62 to i64
  %64 = getelementptr inbounds i32, ptr %60, i64 %63
  %65 = load i32, ptr %64, align 4, !tbaa !114
  %66 = add nsw i32 %57, %65
  %67 = load ptr, ptr %5, align 8, !tbaa !345
  %68 = getelementptr inbounds nuw %struct.t_blocka, ptr %67, i32 0, i32 1
  %69 = load ptr, ptr %68, align 8, !tbaa !353
  %70 = load i32, ptr %8, align 4, !tbaa !114
  %71 = sext i32 %70 to i64
  %72 = getelementptr inbounds i32, ptr %69, i64 %71
  %73 = load i32, ptr %72, align 4, !tbaa !114
  %74 = sub nsw i32 %66, %73
  %75 = load ptr, ptr %4, align 8, !tbaa !232
  %76 = getelementptr inbounds nuw %struct.gmx_ana_index_t, ptr %75, i32 0, i32 0
  %77 = load i32, ptr %76, align 8, !tbaa !234
  %78 = icmp sgt i32 %74, %77
  br i1 %78, label %79, label %80

79:                                               ; preds = %56, %50
  store i1 false, ptr %3, align 1
  store i32 1, ptr %9, align 4
  br label %126

80:                                               ; preds = %56
  %81 = load ptr, ptr %5, align 8, !tbaa !345
  %82 = getelementptr inbounds nuw %struct.t_blocka, ptr %81, i32 0, i32 1
  %83 = load ptr, ptr %82, align 8, !tbaa !353
  %84 = load i32, ptr %8, align 4, !tbaa !114
  %85 = sext i32 %84 to i64
  %86 = getelementptr inbounds i32, ptr %83, i64 %85
  %87 = load i32, ptr %86, align 4, !tbaa !114
  store i32 %87, ptr %7, align 4, !tbaa !114
  br label %88

88:                                               ; preds = %117, %80
  %89 = load i32, ptr %7, align 4, !tbaa !114
  %90 = load ptr, ptr %5, align 8, !tbaa !345
  %91 = getelementptr inbounds nuw %struct.t_blocka, ptr %90, i32 0, i32 1
  %92 = load ptr, ptr %91, align 8, !tbaa !353
  %93 = load i32, ptr %8, align 4, !tbaa !114
  %94 = add nsw i32 %93, 1
  %95 = sext i32 %94 to i64
  %96 = getelementptr inbounds i32, ptr %92, i64 %95
  %97 = load i32, ptr %96, align 4, !tbaa !114
  %98 = icmp slt i32 %89, %97
  br i1 %98, label %99, label %122

99:                                               ; preds = %88
  %100 = load ptr, ptr %5, align 8, !tbaa !345
  %101 = getelementptr inbounds nuw %struct.t_blocka, ptr %100, i32 0, i32 3
  %102 = load ptr, ptr %101, align 8, !tbaa !349
  %103 = load i32, ptr %7, align 4, !tbaa !114
  %104 = sext i32 %103 to i64
  %105 = getelementptr inbounds i32, ptr %102, i64 %104
  %106 = load i32, ptr %105, align 4, !tbaa !114
  %107 = load ptr, ptr %4, align 8, !tbaa !232
  %108 = getelementptr inbounds nuw %struct.gmx_ana_index_t, ptr %107, i32 0, i32 1
  %109 = load ptr, ptr %108, align 8, !tbaa !236
  %110 = load i32, ptr %6, align 4, !tbaa !114
  %111 = sext i32 %110 to i64
  %112 = getelementptr inbounds i32, ptr %109, i64 %111
  %113 = load i32, ptr %112, align 4, !tbaa !114
  %114 = icmp ne i32 %106, %113
  br i1 %114, label %115, label %116

115:                                              ; preds = %99
  store i1 false, ptr %3, align 1
  store i32 1, ptr %9, align 4
  br label %126

116:                                              ; preds = %99
  br label %117

117:                                              ; preds = %116
  %118 = load i32, ptr %7, align 4, !tbaa !114
  %119 = add nsw i32 %118, 1
  store i32 %119, ptr %7, align 4, !tbaa !114
  %120 = load i32, ptr %6, align 4, !tbaa !114
  %121 = add nsw i32 %120, 1
  store i32 %121, ptr %6, align 4, !tbaa !114
  br label %88, !llvm.loop !473

122:                                              ; preds = %88
  %123 = load i32, ptr %8, align 4, !tbaa !114
  %124 = add nsw i32 %123, 1
  store i32 %124, ptr %8, align 4, !tbaa !114
  br label %10, !llvm.loop !474

125:                                              ; preds = %10
  store i1 true, ptr %3, align 1
  store i32 1, ptr %9, align 4
  br label %126

126:                                              ; preds = %125, %115, %79
  call void @llvm.lifetime.end.p0(i64 4, ptr %8) #19
  call void @llvm.lifetime.end.p0(i64 4, ptr %7) #19
  call void @llvm.lifetime.end.p0(i64 4, ptr %6) #19
  %127 = load i1, ptr %3, align 1
  ret i1 %127
}