; Function Attrs: mustprogress nofree norecurse nosync nounwind willreturn memory(read, inaccessiblemem: none) uwtable
define noundef zeroext i1 @_Z30gmx_ana_index_has_full_ablocksP15gmx_ana_index_tP8t_blocka(ptr noundef readonly captures(none) %0, ptr noundef readonly captures(none) %1) local_unnamed_addr #18 {
  %3 = load i32, ptr %0, align 8, !tbaa !73
  %4 = icmp slt i32 %3, 1
  br i1 %4, label %.loopexit35, label %.preheader36.lr.ph

.preheader36.lr.ph:                               ; preds = %2
  %5 = getelementptr inbounds nuw i8, ptr %1, i64 24
  %6 = load i32, ptr %1, align 8, !tbaa !144
  %7 = getelementptr inbounds nuw i8, ptr %1, i64 8
  %8 = getelementptr inbounds nuw i8, ptr %0, i64 8
  %9 = sext i32 %6 to i64
  br label %.preheader36

.loopexit.loopexit:                               ; preds = %50
  %10 = trunc nsw i64 %indvars.iv.next62 to i32
  br label %.loopexit

.loopexit:                                        ; preds = %.loopexit.loopexit, %.preheader
  %.132.lcssa = phi i32 [ %.03150, %.preheader ], [ %10, %.loopexit.loopexit ]
  %.not56 = icmp slt i32 %.132.lcssa, %3
  br i1 %.not56, label %.preheader36, label %.loopexit35, !llvm.loop !244

.preheader36:                                     ; preds = %.preheader36.lr.ph, %.loopexit
  %.051 = phi i32 [ 0, %.preheader36.lr.ph ], [ %30, %.loopexit ]
  %.03150 = phi i32 [ 0, %.preheader36.lr.ph ], [ %.132.lcssa, %.loopexit ]
  %11 = icmp slt i32 %.051, %6
  br i1 %11, label %.lr.ph, label %.critedge

.lr.ph:                                           ; preds = %.preheader36
  %12 = load ptr, ptr %5, align 8, !tbaa !142
  %13 = load ptr, ptr %7, align 8, !tbaa !206
  %14 = load ptr, ptr %8, align 8, !tbaa !108
  %15 = sext i32 %.03150 to i64
  %16 = getelementptr inbounds i32, ptr %14, i64 %15
  %17 = load i32, ptr %16, align 4, !tbaa !36
  %18 = sext i32 %.051 to i64
  br label %19

19:                                               ; preds = %.lr.ph, %25
  %indvars.iv = phi i64 [ %18, %.lr.ph ], [ %indvars.iv.next, %25 ]
  %20 = getelementptr inbounds i32, ptr %13, i64 %indvars.iv
  %21 = load i32, ptr %20, align 4, !tbaa !36
  %22 = sext i32 %21 to i64
  %23 = getelementptr inbounds i32, ptr %12, i64 %22
  %24 = load i32, ptr %23, align 4, !tbaa !36
  %.not = icmp eq i32 %24, %17
  br i1 %.not, label %.critedge.loopexit, label %25

25:                                               ; preds = %19
  %indvars.iv.next = add nsw i64 %indvars.iv, 1
  %exitcond.not = icmp eq i64 %indvars.iv.next, %9
  br i1 %exitcond.not, label %.loopexit35, label %19, !llvm.loop !245

.critedge.loopexit:                               ; preds = %19
  %26 = trunc nsw i64 %indvars.iv to i32
  br label %.critedge

.critedge:                                        ; preds = %.critedge.loopexit, %.preheader36
  %.1.lcssa = phi i32 [ %.051, %.preheader36 ], [ %26, %.critedge.loopexit ]
  %27 = icmp eq i32 %.1.lcssa, %6
  br i1 %27, label %.loopexit35, label %28

28:                                               ; preds = %.critedge
  %29 = load ptr, ptr %7, align 8, !tbaa !206
  %30 = add nsw i32 %.1.lcssa, 1
  %31 = sext i32 %30 to i64
  %32 = getelementptr inbounds i32, ptr %29, i64 %31
  %33 = load i32, ptr %32, align 4, !tbaa !36
  %34 = add nsw i32 %33, %.03150
  %35 = sext i32 %.1.lcssa to i64
  %36 = getelementptr inbounds i32, ptr %29, i64 %35
  %37 = load i32, ptr %36, align 4, !tbaa !36
  %38 = sub i32 %34, %37
  %39 = icmp sgt i32 %38, %3
  br i1 %39, label %.loopexit35, label %.preheader

.preheader:                                       ; preds = %28
  %40 = icmp slt i32 %37, %33
  br i1 %40, label %.lr.ph48, label %.loopexit

.lr.ph48:                                         ; preds = %.preheader
  %41 = load ptr, ptr %5, align 8, !tbaa !142
  %42 = load ptr, ptr %8, align 8, !tbaa !108
  %43 = sext i32 %37 to i64
  %44 = sext i32 %.03150 to i64
  br label %45

45:                                               ; preds = %.lr.ph48, %50
  %indvars.iv61 = phi i64 [ %44, %.lr.ph48 ], [ %indvars.iv.next62, %50 ]
  %indvars.iv59 = phi i64 [ %43, %.lr.ph48 ], [ %indvars.iv.next60, %50 ]
  %46 = getelementptr inbounds i32, ptr %41, i64 %indvars.iv59
  %47 = load i32, ptr %46, align 4, !tbaa !36
  %48 = getelementptr inbounds i32, ptr %42, i64 %indvars.iv61
  %49 = load i32, ptr %48, align 4, !tbaa !36
  %.not34 = icmp eq i32 %47, %49
  br i1 %.not34, label %50, label %.loopexit35

50:                                               ; preds = %45
  %indvars.iv.next60 = add nsw i64 %indvars.iv59, 1
  %indvars.iv.next62 = add nsw i64 %indvars.iv61, 1
  %lftr.wideiv = trunc i64 %indvars.iv.next60 to i32
  %exitcond66.not = icmp eq i32 %33, %lftr.wideiv
  br i1 %exitcond66.not, label %.loopexit.loopexit, label %45, !llvm.loop !246

.loopexit35:                                      ; preds = %28, %.critedge, %.loopexit, %25, %45, %2
  %51 = phi i1 [ true, %2 ], [ false, %45 ], [ false, %25 ], [ false, %28 ], [ false, %.critedge ], [ true, %.loopexit ]
  ret i1 %51
}